target datalayout = "e-m:e-p270:32:32-p271:32:32-p272:64:64-i64:64-i128:128-f80:128-n8:16:32:64-S128"
target triple = "x86_64-pc-linux-gnu"

%struct.send_envelope_list = type { ptr, %struct.tMPI_Atomic_ptr, %struct.tMPI_Atomic_ptr, ptr, ptr, i64 }
%struct.tMPI_Atomic_ptr = type { ptr, [56 x i8] }

; Function Attrs: mustprogress nounwind uwtable
define void @_Z26tMPI_Send_env_list_destroyP18send_envelope_list(ptr noundef %0) #3 {
  %2 = alloca ptr, align 8
  store ptr %0, ptr %2, align 8, !tbaa !27
  %3 = load ptr, ptr %2, align 8, !tbaa !27
  %4 = getelementptr inbounds nuw %struct.send_envelope_list, ptr %3, i32 0, i32 4
  %5 = load ptr, ptr %4, align 8, !tbaa !31
  call void @free(ptr noundef %5) #7
  %6 = load ptr, ptr %2, align 8, !tbaa !27
  %7 = getelementptr inbounds nuw %struct.send_envelope_list, ptr %6, i32 0, i32 4
  store ptr null, ptr %7, align 8, !tbaa !31
  %8 = load ptr, ptr %2, align 8, !tbaa !27
  %9 = getelementptr inbounds nuw %struct.send_envelope_list, ptr %8, i32 0, i32 1
  %10 = getelementptr inbounds nuw %struct.tMPI_Atomic_ptr, ptr %9, i32 0, i32 0
  store ptr null, ptr %10, align 8, !tbaa !34
  %11 = load ptr, ptr %2, align 8, !tbaa !27
  %12 = getelementptr inbounds nuw %struct.send_envelope_list, ptr %11, i32 0, i32 3
  store ptr null, ptr %12, align 8, !tbaa !37
  ret void
}