; Function Attrs: mustprogress nounwind willreturn uwtable
define void @_Z26tMPI_Send_env_list_destroyP18send_envelope_list(ptr noundef captures(none) initializes((8, 16), (136, 144)) %0) local_unnamed_addr #2 {
  %2 = getelementptr inbounds nuw i8, ptr %0, i64 144
  %3 = load ptr, ptr %2, align 8, !tbaa !25
  tail call void @free(ptr noundef %3) #11
  %4 = getelementptr inbounds nuw i8, ptr %0, i64 8
  store ptr null, ptr %4, align 8, !tbaa !30
  %5 = getelementptr inbounds nuw i8, ptr %0, i64 136
  tail call void @llvm.memset.p0.i64(ptr noundef nonnull align 8 dereferenceable(16) %5, i8 0, i64 16, i1 false)
  ret void
}